
PSerial.elf:     file format elf32-avr

Sections:
Idx Name          Size      VMA       LMA       File off  Algn
  0 .data         00000014  00800200  000002a4  00000338  2**0
                  CONTENTS, ALLOC, LOAD, DATA
  1 .text         000002a4  00000000  00000000  00000094  2**1
                  CONTENTS, ALLOC, LOAD, READONLY, CODE
  2 .bss          00000002  00800214  00800214  0000034c  2**0
                  ALLOC
  3 .comment      00000030  00000000  00000000  0000034c  2**0
                  CONTENTS, READONLY
  4 .note.gnu.avr.deviceinfo 00000040  00000000  00000000  0000037c  2**2
                  CONTENTS, READONLY
  5 .debug_aranges 00000058  00000000  00000000  000003bc  2**0
                  CONTENTS, READONLY, DEBUGGING
  6 .debug_info   00000f71  00000000  00000000  00000414  2**0
                  CONTENTS, READONLY, DEBUGGING
  7 .debug_abbrev 00000d26  00000000  00000000  00001385  2**0
                  CONTENTS, READONLY, DEBUGGING
  8 .debug_line   000003b2  00000000  00000000  000020ab  2**0
                  CONTENTS, READONLY, DEBUGGING
  9 .debug_frame  000000a8  00000000  00000000  00002460  2**2
                  CONTENTS, READONLY, DEBUGGING
 10 .debug_str    000005eb  00000000  00000000  00002508  2**0
                  CONTENTS, READONLY, DEBUGGING
 11 .debug_loc    000001f3  00000000  00000000  00002af3  2**0
                  CONTENTS, READONLY, DEBUGGING
 12 .debug_ranges 00000038  00000000  00000000  00002ce6  2**0
                  CONTENTS, READONLY, DEBUGGING

Disassembly of section .text:

00000000 <__vectors>:
   0:	71 c0       	rjmp	.+226    	; 0xe4 <__ctors_end>
   2:	00 00       	nop
   4:	8e c0       	rjmp	.+284    	; 0x122 <__bad_interrupt>
   6:	00 00       	nop
   8:	8c c0       	rjmp	.+280    	; 0x122 <__bad_interrupt>
   a:	00 00       	nop
   c:	8a c0       	rjmp	.+276    	; 0x122 <__bad_interrupt>
   e:	00 00       	nop
  10:	88 c0       	rjmp	.+272    	; 0x122 <__bad_interrupt>
  12:	00 00       	nop
  14:	86 c0       	rjmp	.+268    	; 0x122 <__bad_interrupt>
  16:	00 00       	nop
  18:	84 c0       	rjmp	.+264    	; 0x122 <__bad_interrupt>
  1a:	00 00       	nop
  1c:	82 c0       	rjmp	.+260    	; 0x122 <__bad_interrupt>
  1e:	00 00       	nop
  20:	80 c0       	rjmp	.+256    	; 0x122 <__bad_interrupt>
  22:	00 00       	nop
  24:	7e c0       	rjmp	.+252    	; 0x122 <__bad_interrupt>
  26:	00 00       	nop
  28:	7c c0       	rjmp	.+248    	; 0x122 <__bad_interrupt>
  2a:	00 00       	nop
  2c:	7a c0       	rjmp	.+244    	; 0x122 <__bad_interrupt>
  2e:	00 00       	nop
  30:	78 c0       	rjmp	.+240    	; 0x122 <__bad_interrupt>
  32:	00 00       	nop
  34:	76 c0       	rjmp	.+236    	; 0x122 <__bad_interrupt>
  36:	00 00       	nop
  38:	74 c0       	rjmp	.+232    	; 0x122 <__bad_interrupt>
  3a:	00 00       	nop
  3c:	72 c0       	rjmp	.+228    	; 0x122 <__bad_interrupt>
  3e:	00 00       	nop
  40:	70 c0       	rjmp	.+224    	; 0x122 <__bad_interrupt>
  42:	00 00       	nop
  44:	6e c0       	rjmp	.+220    	; 0x122 <__bad_interrupt>
  46:	00 00       	nop
  48:	6c c0       	rjmp	.+216    	; 0x122 <__bad_interrupt>
  4a:	00 00       	nop
  4c:	6a c0       	rjmp	.+212    	; 0x122 <__bad_interrupt>
  4e:	00 00       	nop
  50:	68 c0       	rjmp	.+208    	; 0x122 <__bad_interrupt>
  52:	00 00       	nop
  54:	66 c0       	rjmp	.+204    	; 0x122 <__bad_interrupt>
  56:	00 00       	nop
  58:	64 c0       	rjmp	.+200    	; 0x122 <__bad_interrupt>
  5a:	00 00       	nop
  5c:	62 c0       	rjmp	.+196    	; 0x122 <__bad_interrupt>
  5e:	00 00       	nop
  60:	60 c0       	rjmp	.+192    	; 0x122 <__bad_interrupt>
  62:	00 00       	nop
  64:	5e c0       	rjmp	.+188    	; 0x122 <__bad_interrupt>
  66:	00 00       	nop
  68:	5c c0       	rjmp	.+184    	; 0x122 <__bad_interrupt>
  6a:	00 00       	nop
  6c:	5a c0       	rjmp	.+180    	; 0x122 <__bad_interrupt>
  6e:	00 00       	nop
  70:	58 c0       	rjmp	.+176    	; 0x122 <__bad_interrupt>
  72:	00 00       	nop
  74:	56 c0       	rjmp	.+172    	; 0x122 <__bad_interrupt>
  76:	00 00       	nop
  78:	54 c0       	rjmp	.+168    	; 0x122 <__bad_interrupt>
  7a:	00 00       	nop
  7c:	52 c0       	rjmp	.+164    	; 0x122 <__bad_interrupt>
  7e:	00 00       	nop
  80:	50 c0       	rjmp	.+160    	; 0x122 <__bad_interrupt>
  82:	00 00       	nop
  84:	4e c0       	rjmp	.+156    	; 0x122 <__bad_interrupt>
  86:	00 00       	nop
  88:	4c c0       	rjmp	.+152    	; 0x122 <__bad_interrupt>
  8a:	00 00       	nop
  8c:	4a c0       	rjmp	.+148    	; 0x122 <__bad_interrupt>
  8e:	00 00       	nop
  90:	48 c0       	rjmp	.+144    	; 0x122 <__bad_interrupt>
  92:	00 00       	nop
  94:	46 c0       	rjmp	.+140    	; 0x122 <__bad_interrupt>
  96:	00 00       	nop
  98:	44 c0       	rjmp	.+136    	; 0x122 <__bad_interrupt>
  9a:	00 00       	nop
  9c:	42 c0       	rjmp	.+132    	; 0x122 <__bad_interrupt>
  9e:	00 00       	nop
  a0:	40 c0       	rjmp	.+128    	; 0x122 <__bad_interrupt>
  a2:	00 00       	nop
  a4:	3e c0       	rjmp	.+124    	; 0x122 <__bad_interrupt>
  a6:	00 00       	nop
  a8:	3c c0       	rjmp	.+120    	; 0x122 <__bad_interrupt>
  aa:	00 00       	nop
  ac:	3a c0       	rjmp	.+116    	; 0x122 <__bad_interrupt>
  ae:	00 00       	nop
  b0:	38 c0       	rjmp	.+112    	; 0x122 <__bad_interrupt>
  b2:	00 00       	nop
  b4:	36 c0       	rjmp	.+108    	; 0x122 <__bad_interrupt>
  b6:	00 00       	nop
  b8:	34 c0       	rjmp	.+104    	; 0x122 <__bad_interrupt>
  ba:	00 00       	nop
  bc:	32 c0       	rjmp	.+100    	; 0x122 <__bad_interrupt>
  be:	00 00       	nop
  c0:	30 c0       	rjmp	.+96     	; 0x122 <__bad_interrupt>
  c2:	00 00       	nop
  c4:	2e c0       	rjmp	.+92     	; 0x122 <__bad_interrupt>
  c6:	00 00       	nop
  c8:	2c c0       	rjmp	.+88     	; 0x122 <__bad_interrupt>
  ca:	00 00       	nop
  cc:	2a c0       	rjmp	.+84     	; 0x122 <__bad_interrupt>
  ce:	00 00       	nop
  d0:	28 c0       	rjmp	.+80     	; 0x122 <__bad_interrupt>
  d2:	00 00       	nop
  d4:	26 c0       	rjmp	.+76     	; 0x122 <__bad_interrupt>
  d6:	00 00       	nop
  d8:	24 c0       	rjmp	.+72     	; 0x122 <__bad_interrupt>
  da:	00 00       	nop
  dc:	22 c0       	rjmp	.+68     	; 0x122 <__bad_interrupt>
  de:	00 00       	nop
  e0:	20 c0       	rjmp	.+64     	; 0x122 <__bad_interrupt>
	...

000000e4 <__ctors_end>:
  e4:	11 24       	eor	r1, r1
  e6:	1f be       	out	0x3f, r1	; 63
  e8:	cf ef       	ldi	r28, 0xFF	; 255
  ea:	d1 e2       	ldi	r29, 0x21	; 33
  ec:	de bf       	out	0x3e, r29	; 62
  ee:	cd bf       	out	0x3d, r28	; 61
  f0:	00 e0       	ldi	r16, 0x00	; 0
  f2:	0c bf       	out	0x3c, r16	; 60

000000f4 <__do_copy_data>:
  f4:	12 e0       	ldi	r17, 0x02	; 2
  f6:	a0 e0       	ldi	r26, 0x00	; 0
  f8:	b2 e0       	ldi	r27, 0x02	; 2
  fa:	e4 ea       	ldi	r30, 0xA4	; 164
  fc:	f2 e0       	ldi	r31, 0x02	; 2
  fe:	00 e0       	ldi	r16, 0x00	; 0
 100:	0b bf       	out	0x3b, r16	; 59
 102:	02 c0       	rjmp	.+4      	; 0x108 <__do_copy_data+0x14>
 104:	07 90       	elpm	r0, Z+
 106:	0d 92       	st	X+, r0
 108:	a4 31       	cpi	r26, 0x14	; 20
 10a:	b1 07       	cpc	r27, r17
 10c:	d9 f7       	brne	.-10     	; 0x104 <__do_copy_data+0x10>

0000010e <__do_clear_bss>:
 10e:	22 e0       	ldi	r18, 0x02	; 2
 110:	a4 e1       	ldi	r26, 0x14	; 20
 112:	b2 e0       	ldi	r27, 0x02	; 2
 114:	01 c0       	rjmp	.+2      	; 0x118 <.do_clear_bss_start>

00000116 <.do_clear_bss_loop>:
 116:	1d 92       	st	X+, r1

00000118 <.do_clear_bss_start>:
 118:	a6 31       	cpi	r26, 0x16	; 22
 11a:	b2 07       	cpc	r27, r18
 11c:	e1 f7       	brne	.-8      	; 0x116 <.do_clear_bss_loop>
 11e:	02 d0       	rcall	.+4      	; 0x124 <main>
 120:	bf c0       	rjmp	.+382    	; 0x2a0 <_exit>

00000122 <__bad_interrupt>:
 122:	6e cf       	rjmp	.-292    	; 0x0 <__vectors>

00000124 <main>:
#include <util/delay.h>
#include "PSerial.h"
#include "EmSys.h"

int main(void)
{
 124:	cf 93       	push	r28
 126:	df 93       	push	r29
 128:	cd b7       	in	r28, 0x3d	; 61
 12a:	de b7       	in	r29, 0x3e	; 62
 12c:	61 97       	sbiw	r28, 0x11	; 17
 12e:	0f b6       	in	r0, 0x3f	; 63
 130:	f8 94       	cli
 132:	de bf       	out	0x3e, r29	; 62
 134:	0f be       	out	0x3f, r0	; 63
 136:	cd bf       	out	0x3d, r28	; 61
    /* Replace with your application code */
	init_ports(2400, SERIAL_8E1);
 138:	46 e2       	ldi	r20, 0x26	; 38
 13a:	50 e0       	ldi	r21, 0x00	; 0
 13c:	60 e6       	ldi	r22, 0x60	; 96
 13e:	79 e0       	ldi	r23, 0x09	; 9
 140:	80 e0       	ldi	r24, 0x00	; 0
 142:	90 e0       	ldi	r25, 0x00	; 0
 144:	69 d0       	rcall	.+210    	; 0x218 <init_ports>
	//char test = '1';
	
    while (1) 
    {
		//	char label2[] ="helloWorld";
			char label2[] = "0123456789ABCDEF";
 146:	0f 2e       	mov	r0, r31
 148:	f1 e1       	ldi	r31, 0x11	; 17
 14a:	df 2e       	mov	r13, r31
 14c:	f0 2d       	mov	r31, r0
 14e:	7e 01       	movw	r14, r28
 150:	89 e0       	ldi	r24, 0x09	; 9
 152:	e8 0e       	add	r14, r24
 154:	f1 1c       	adc	r15, r1
 156:	e2 e0       	ldi	r30, 0x02	; 2
 158:	f2 e0       	ldi	r31, 0x02	; 2
 15a:	de 01       	movw	r26, r28
 15c:	11 96       	adiw	r26, 0x01	; 1
 15e:	8d 2d       	mov	r24, r13
 160:	01 90       	ld	r0, Z+
 162:	0d 92       	st	X+, r0
 164:	8a 95       	dec	r24
 166:	e1 f7       	brne	.-8      	; 0x160 <main+0x3c>
 168:	8e 01       	movw	r16, r28
 16a:	0f 5f       	subi	r16, 0xFF	; 255
 16c:	1f 4f       	sbci	r17, 0xFF	; 255

			for(int i = 0; i<8; i++)
			{
				PSerial_write(0, label2[i]);
 16e:	f8 01       	movw	r30, r16
 170:	61 91       	ld	r22, Z+
 172:	8f 01       	movw	r16, r30
 174:	80 e0       	ldi	r24, 0x00	; 0
 176:	3c d0       	rcall	.+120    	; 0x1f0 <PSerial_write>
    while (1) 
    {
		//	char label2[] ="helloWorld";
			char label2[] = "0123456789ABCDEF";

			for(int i = 0; i<8; i++)
 178:	0e 15       	cp	r16, r14
 17a:	1f 05       	cpc	r17, r15
 17c:	c1 f7       	brne	.-16     	; 0x16e <main+0x4a>
			{
				PSerial_write(0, label2[i]);
			}
			PSerial_write(0, '\r');
 17e:	6d e0       	ldi	r22, 0x0D	; 13
 180:	80 e0       	ldi	r24, 0x00	; 0
 182:	36 d0       	rcall	.+108    	; 0x1f0 <PSerial_write>
			PSerial_write(0, '\n');
 184:	6a e0       	ldi	r22, 0x0A	; 10
 186:	80 e0       	ldi	r24, 0x00	; 0
 188:	33 d0       	rcall	.+102    	; 0x1f0 <PSerial_write>
			//_delay_ms(500);
    }
 18a:	e5 cf       	rjmp	.-54     	; 0x156 <main+0x32>

0000018c <PSerial_open>:
	
	while (!(serial_port[port]->ucsra & rxcn)) {
		// wait for RXC
	}
	return UDR0;
}
 18c:	cf 92       	push	r12
 18e:	df 92       	push	r13
 190:	ef 92       	push	r14
 192:	ff 92       	push	r15
 194:	cf 93       	push	r28
 196:	df 93       	push	r29
 198:	6a 01       	movw	r12, r20
 19a:	7b 01       	movw	r14, r22
 19c:	e8 2f       	mov	r30, r24
 19e:	f0 e0       	ldi	r31, 0x00	; 0
 1a0:	ee 0f       	add	r30, r30
 1a2:	ff 1f       	adc	r31, r31
 1a4:	e0 50       	subi	r30, 0x00	; 0
 1a6:	fe 4f       	sbci	r31, 0xFE	; 254
 1a8:	a0 81       	ld	r26, Z
 1aa:	b1 81       	ldd	r27, Z+1	; 0x01
 1ac:	88 e1       	ldi	r24, 0x18	; 24
 1ae:	11 96       	adiw	r26, 0x01	; 1
 1b0:	8c 93       	st	X, r24
 1b2:	c0 81       	ld	r28, Z
 1b4:	d1 81       	ldd	r29, Z+1	; 0x01
 1b6:	2a 83       	std	Y+2, r18	; 0x02
 1b8:	60 e4       	ldi	r22, 0x40	; 64
 1ba:	72 e4       	ldi	r23, 0x42	; 66
 1bc:	8f e0       	ldi	r24, 0x0F	; 15
 1be:	90 e0       	ldi	r25, 0x00	; 0
 1c0:	a7 01       	movw	r20, r14
 1c2:	96 01       	movw	r18, r12
 1c4:	2f d0       	rcall	.+94     	; 0x224 <__divmodsi4>
 1c6:	ba 01       	movw	r22, r20
 1c8:	a9 01       	movw	r20, r18
 1ca:	41 50       	subi	r20, 0x01	; 1
 1cc:	51 09       	sbc	r21, r1
 1ce:	61 09       	sbc	r22, r1
 1d0:	71 09       	sbc	r23, r1
 1d2:	bb 27       	eor	r27, r27
 1d4:	77 fd       	sbrc	r23, 7
 1d6:	ba 95       	dec	r27
 1d8:	a7 2f       	mov	r26, r23
 1da:	96 2f       	mov	r25, r22
 1dc:	85 2f       	mov	r24, r21
 1de:	8d 83       	std	Y+5, r24	; 0x05
 1e0:	4c 83       	std	Y+4, r20	; 0x04
 1e2:	df 91       	pop	r29
 1e4:	cf 91       	pop	r28
 1e6:	ff 90       	pop	r15
 1e8:	ef 90       	pop	r14
 1ea:	df 90       	pop	r13
 1ec:	cf 90       	pop	r12
 1ee:	08 95       	ret

000001f0 <PSerial_write>:

void PSerial_write(unsigned char port, char data)
{
	static int udren;
	udren = (1 << UDRE0);
 1f0:	20 e2       	ldi	r18, 0x20	; 32
 1f2:	30 e0       	ldi	r19, 0x00	; 0
 1f4:	30 93 15 02 	sts	0x0215, r19	; 0x800215 <__data_end+0x1>
 1f8:	20 93 14 02 	sts	0x0214, r18	; 0x800214 <__data_end>
	
	while (!(serial_port[port]->ucsra & udren))
 1fc:	e8 2f       	mov	r30, r24
 1fe:	f0 e0       	ldi	r31, 0x00	; 0
 200:	ee 0f       	add	r30, r30
 202:	ff 1f       	adc	r31, r31
 204:	e0 50       	subi	r30, 0x00	; 0
 206:	fe 4f       	sbci	r31, 0xFE	; 254
 208:	01 90       	ld	r0, Z+
 20a:	f0 81       	ld	r31, Z
 20c:	e0 2d       	mov	r30, r0
 20e:	80 81       	ld	r24, Z
 210:	85 ff       	sbrs	r24, 5
 212:	fd cf       	rjmp	.-6      	; 0x20e <PSerial_write+0x1e>
	{
		//wait for RXC
	}
	serial_port[port]->udr = data;
 214:	66 83       	std	Z+6, r22	; 0x06
 216:	08 95       	ret

00000218 <init_ports>:
}

void init_ports(long baud, int framing) 
{ 
 218:	9a 01       	movw	r18, r20

		PSerial_open(0, baud, framing);
 21a:	ab 01       	movw	r20, r22
 21c:	bc 01       	movw	r22, r24
 21e:	80 e0       	ldi	r24, 0x00	; 0
 220:	b5 cf       	rjmp	.-150    	; 0x18c <PSerial_open>
 222:	08 95       	ret

00000224 <__divmodsi4>:
 224:	05 2e       	mov	r0, r21
 226:	97 fb       	bst	r25, 7
 228:	16 f4       	brtc	.+4      	; 0x22e <__divmodsi4+0xa>
 22a:	00 94       	com	r0
 22c:	0f d0       	rcall	.+30     	; 0x24c <__negsi2>
 22e:	57 fd       	sbrc	r21, 7
 230:	05 d0       	rcall	.+10     	; 0x23c <__divmodsi4_neg2>
 232:	14 d0       	rcall	.+40     	; 0x25c <__udivmodsi4>
 234:	07 fc       	sbrc	r0, 7
 236:	02 d0       	rcall	.+4      	; 0x23c <__divmodsi4_neg2>
 238:	46 f4       	brtc	.+16     	; 0x24a <__divmodsi4_exit>
 23a:	08 c0       	rjmp	.+16     	; 0x24c <__negsi2>

0000023c <__divmodsi4_neg2>:
 23c:	50 95       	com	r21
 23e:	40 95       	com	r20
 240:	30 95       	com	r19
 242:	21 95       	neg	r18
 244:	3f 4f       	sbci	r19, 0xFF	; 255
 246:	4f 4f       	sbci	r20, 0xFF	; 255
 248:	5f 4f       	sbci	r21, 0xFF	; 255

0000024a <__divmodsi4_exit>:
 24a:	08 95       	ret

0000024c <__negsi2>:
 24c:	90 95       	com	r25
 24e:	80 95       	com	r24
 250:	70 95       	com	r23
 252:	61 95       	neg	r22
 254:	7f 4f       	sbci	r23, 0xFF	; 255
 256:	8f 4f       	sbci	r24, 0xFF	; 255
 258:	9f 4f       	sbci	r25, 0xFF	; 255
 25a:	08 95       	ret

0000025c <__udivmodsi4>:
 25c:	a1 e2       	ldi	r26, 0x21	; 33
 25e:	1a 2e       	mov	r1, r26
 260:	aa 1b       	sub	r26, r26
 262:	bb 1b       	sub	r27, r27
 264:	fd 01       	movw	r30, r26
 266:	0d c0       	rjmp	.+26     	; 0x282 <__udivmodsi4_ep>

00000268 <__udivmodsi4_loop>:
 268:	aa 1f       	adc	r26, r26
 26a:	bb 1f       	adc	r27, r27
 26c:	ee 1f       	adc	r30, r30
 26e:	ff 1f       	adc	r31, r31
 270:	a2 17       	cp	r26, r18
 272:	b3 07       	cpc	r27, r19
 274:	e4 07       	cpc	r30, r20
 276:	f5 07       	cpc	r31, r21
 278:	20 f0       	brcs	.+8      	; 0x282 <__udivmodsi4_ep>
 27a:	a2 1b       	sub	r26, r18
 27c:	b3 0b       	sbc	r27, r19
 27e:	e4 0b       	sbc	r30, r20
 280:	f5 0b       	sbc	r31, r21

00000282 <__udivmodsi4_ep>:
 282:	66 1f       	adc	r22, r22
 284:	77 1f       	adc	r23, r23
 286:	88 1f       	adc	r24, r24
 288:	99 1f       	adc	r25, r25
 28a:	1a 94       	dec	r1
 28c:	69 f7       	brne	.-38     	; 0x268 <__udivmodsi4_loop>
 28e:	60 95       	com	r22
 290:	70 95       	com	r23
 292:	80 95       	com	r24
 294:	90 95       	com	r25
 296:	9b 01       	movw	r18, r22
 298:	ac 01       	movw	r20, r24
 29a:	bd 01       	movw	r22, r26
 29c:	cf 01       	movw	r24, r30
 29e:	08 95       	ret

000002a0 <_exit>:
 2a0:	f8 94       	cli

000002a2 <__stop_program>:
 2a2:	ff cf       	rjmp	.-2      	; 0x2a2 <__stop_program>
